target datalayout = "e-m:e-p270:32:32-p271:32:32-p272:64:64-i64:64-i128:128-f80:128-n8:16:32:64-S128"
target triple = "x86_64-pc-linux-gnu"

%struct.TupleTableSlotOps = type { i64, ptr, ptr, ptr, ptr, ptr, ptr, ptr, ptr, ptr, ptr, ptr, ptr }
%struct.TupleTableSlot = type { i32, i16, i16, ptr, ptr, ptr, ptr, ptr, %struct.ItemPointerData, i32 }
%struct.ItemPointerData = type { %struct.BlockIdData, i16 }
%struct.BlockIdData = type { i16, i16 }
%struct.TupleDescData = type { i32, i32, i32, i32, ptr, [0 x %struct.CompactAttribute] }
%struct.CompactAttribute = type { i32, i16, i8, i8, i8, i8, i8, i8, i8 }
%struct.TupOutputState = type { ptr, ptr }
%struct._DestReceiver = type { ptr, ptr, ptr, ptr, i32 }

; Function Attrs: nounwind uwtable
define dso_local ptr @ExecStoreVirtualTuple(ptr noundef %0) #0 {
  %2 = alloca ptr, align 8
  store ptr %0, ptr %2, align 8
  %3 = load ptr, ptr %2, align 8
  %4 = getelementptr inbounds nuw %struct.TupleTableSlot, ptr %3, i32 0, i32 1
  %5 = load i16, ptr %4, align 4
  %6 = zext i16 %5 to i32
  %7 = and i32 %6, -3
  %8 = trunc i32 %7 to i16
  store i16 %8, ptr %4, align 4
  %9 = load ptr, ptr %2, align 8
  %10 = getelementptr inbounds nuw %struct.TupleTableSlot, ptr %9, i32 0, i32 4
  %11 = load ptr, ptr %10, align 8
  %12 = getelementptr inbounds nuw %struct.TupleDescData, ptr %11, i32 0, i32 0
  %13 = load i32, ptr %12, align 8
  %14 = trunc i32 %13 to i16
  %15 = load ptr, ptr %2, align 8
  %16 = getelementptr inbounds nuw %struct.TupleTableSlot, ptr %15, i32 0, i32 2
  store i16 %14, ptr %16, align 2
  %17 = load ptr, ptr %2, align 8
  ret ptr %17
}

; Function Attrs: inlinehint nounwind uwtable
define internal ptr @ExecClearTuple(ptr noundef %0) #4 {
  %2 = alloca ptr, align 8
  store ptr %0, ptr %2, align 8
  %3 = load ptr, ptr %2, align 8
  %4 = getelementptr inbounds nuw %struct.TupleTableSlot, ptr %3, i32 0, i32 3
  %5 = load ptr, ptr %4, align 8
  %6 = getelementptr inbounds nuw %struct.TupleTableSlotOps, ptr %5, i32 0, i32 3
  %7 = load ptr, ptr %6, align 8
  %8 = load ptr, ptr %2, align 8
  call void %7(ptr noundef %8)
  %9 = load ptr, ptr %2, align 8
  ret ptr %9
}

; Function Attrs: inlinehint nounwind uwtable
define internal ptr @DatumGetPointer(i64 noundef %0) #4 {
  %2 = alloca i64, align 8
  store i64 %0, ptr %2, align 8
  %3 = load i64, ptr %2, align 8
  %4 = inttoptr i64 %3 to ptr
  ret ptr %4
}

; Function Attrs: nounwind uwtable
define dso_local void @do_tup_output(ptr noundef %0, ptr noundef %1, ptr noundef %2) #0 {
  %4 = alloca ptr, align 8
  %5 = alloca ptr, align 8
  %6 = alloca ptr, align 8
  %7 = alloca ptr, align 8
  %8 = alloca i32, align 4
  store ptr %0, ptr %4, align 8
  store ptr %1, ptr %5, align 8
  store ptr %2, ptr %6, align 8
  call void @llvm.lifetime.start.p0(i64 8, ptr %7) #10
  %9 = load ptr, ptr %4, align 8
  %10 = getelementptr inbounds nuw %struct.TupOutputState, ptr %9, i32 0, i32 0
  %11 = load ptr, ptr %10, align 8
  store ptr %11, ptr %7, align 8
  call void @llvm.lifetime.start.p0(i64 4, ptr %8) #10
  %12 = load ptr, ptr %7, align 8
  %13 = getelementptr inbounds nuw %struct.TupleTableSlot, ptr %12, i32 0, i32 4
  %14 = load ptr, ptr %13, align 8
  %15 = getelementptr inbounds nuw %struct.TupleDescData, ptr %14, i32 0, i32 0
  %16 = load i32, ptr %15, align 8
  store i32 %16, ptr %8, align 4
  %17 = load ptr, ptr %7, align 8
  %18 = call ptr @ExecClearTuple(ptr noundef %17)
  %19 = load ptr, ptr %7, align 8
  %20 = getelementptr inbounds nuw %struct.TupleTableSlot, ptr %19, i32 0, i32 5
  %21 = load ptr, ptr %20, align 8
  %22 = load ptr, ptr %5, align 8
  %23 = load i32, ptr %8, align 4
  %24 = sext i32 %23 to i64
  %25 = mul i64 %24, 8
  call void @llvm.memcpy.p0.p0.i64(ptr align 8 %21, ptr align 8 %22, i64 %25, i1 false)
  %26 = load ptr, ptr %7, align 8
  %27 = getelementptr inbounds nuw %struct.TupleTableSlot, ptr %26, i32 0, i32 6
  %28 = load ptr, ptr %27, align 8
  %29 = load ptr, ptr %6, align 8
  %30 = load i32, ptr %8, align 4
  %31 = sext i32 %30 to i64
  %32 = mul i64 %31, 1
  call void @llvm.memcpy.p0.p0.i64(ptr align 1 %28, ptr align 1 %29, i64 %32, i1 false)
  %33 = load ptr, ptr %7, align 8
  %34 = call ptr @ExecStoreVirtualTuple(ptr noundef %33)
  %35 = load ptr, ptr %4, align 8
  %36 = getelementptr inbounds nuw %struct.TupOutputState, ptr %35, i32 0, i32 1
  %37 = load ptr, ptr %36, align 8
  %38 = getelementptr inbounds nuw %struct._DestReceiver, ptr %37, i32 0, i32 0
  %39 = load ptr, ptr %38, align 8
  %40 = load ptr, ptr %7, align 8
  %41 = load ptr, ptr %4, align 8
  %42 = getelementptr inbounds nuw %struct.TupOutputState, ptr %41, i32 0, i32 1
  %43 = load ptr, ptr %42, align 8
  %44 = call zeroext i1 %39(ptr noundef %40, ptr noundef %43)
  %45 = load ptr, ptr %7, align 8
  %46 = call ptr @ExecClearTuple(ptr noundef %45)
  call void @llvm.lifetime.end.p0(i64 4, ptr %8) #10
  call void @llvm.lifetime.end.p0(i64 8, ptr %7) #10
  ret void
}

; Function Attrs: inlinehint nounwind uwtable
define internal i64 @PointerGetDatum(ptr noundef %0) #4 {
  %2 = alloca ptr, align 8
  store ptr %0, ptr %2, align 8
  %3 = load ptr, ptr %2, align 8
  %4 = ptrtoint ptr %3 to i64
  ret i64 %4
}

; Function Attrs: nounwind uwtable
define dso_local void @do_text_output_multiline(ptr noundef %0, ptr noundef %1) #0 {
  %3 = alloca ptr, align 8
  %4 = alloca ptr, align 8
  %5 = alloca [1 x i64], align 8
  %6 = alloca [1 x i8], align 1
  %7 = alloca ptr, align 8
  %8 = alloca i32, align 4
  store ptr %0, ptr %3, align 8
  store ptr %1, ptr %4, align 8
  call void @llvm.lifetime.start.p0(i64 8, ptr %5) #10
  call void @llvm.lifetime.start.p0(i64 1, ptr %6) #10
  call void @llvm.memset.p0.i64(ptr align 1 %6, i8 0, i64 1, i1 false)
  br label %9

9:                                                ; preds = %35, %2
  %10 = load ptr, ptr %4, align 8
  %11 = load i8, ptr %10, align 1
  %12 = icmp ne i8 %11, 0
  br i1 %12, label %13, label %48

13:                                               ; preds = %9
  call void @llvm.lifetime.start.p0(i64 8, ptr %7) #10
  call void @llvm.lifetime.start.p0(i64 4, ptr %8) #10
  %14 = load ptr, ptr %4, align 8
  %15 = call ptr @strchr(ptr noundef %14, i32 noundef 10) #12
  store ptr %15, ptr %7, align 8
  %16 = load ptr, ptr %7, align 8
  %17 = icmp ne ptr %16, null
  br i1 %17, label %18, label %27

18:                                               ; preds = %13
  %19 = load ptr, ptr %7, align 8
  %20 = load ptr, ptr %4, align 8
  %21 = ptrtoint ptr %19 to i64
  %22 = ptrtoint ptr %20 to i64
  %23 = sub i64 %21, %22
  %24 = trunc i64 %23 to i32
  store i32 %24, ptr %8, align 4
  %25 = load ptr, ptr %7, align 8
  %26 = getelementptr inbounds nuw i8, ptr %25, i32 1
  store ptr %26, ptr %7, align 8
  br label %35

27:                                               ; preds = %13
  %28 = load ptr, ptr %4, align 8
  %29 = call i64 @strlen(ptr noundef %28) #12
  %30 = trunc i64 %29 to i32
  store i32 %30, ptr %8, align 4
  %31 = load ptr, ptr %4, align 8
  %32 = load i32, ptr %8, align 4
  %33 = sext i32 %32 to i64
  %34 = getelementptr inbounds i8, ptr %31, i64 %33
  store ptr %34, ptr %7, align 8
  br label %35

35:                                               ; preds = %27, %18
  %36 = load ptr, ptr %4, align 8
  %37 = load i32, ptr %8, align 4
  %38 = call ptr @cstring_to_text_with_len(ptr noundef %36, i32 noundef %37)
  %39 = call i64 @PointerGetDatum(ptr noundef %38)
  %40 = getelementptr inbounds [1 x i64], ptr %5, i64 0, i64 0
  store i64 %39, ptr %40, align 8
  %41 = load ptr, ptr %3, align 8
  %42 = getelementptr inbounds [1 x i64], ptr %5, i64 0, i64 0
  %43 = getelementptr inbounds [1 x i8], ptr %6, i64 0, i64 0
  call void @do_tup_output(ptr noundef %41, ptr noundef %42, ptr noundef %43)
  %44 = getelementptr inbounds [1 x i64], ptr %5, i64 0, i64 0
  %45 = load i64, ptr %44, align 8
  %46 = call ptr @DatumGetPointer(i64 noundef %45)
  call void @pfree(ptr noundef %46)
  %47 = load ptr, ptr %7, align 8
  store ptr %47, ptr %4, align 8
  call void @llvm.lifetime.end.p0(i64 4, ptr %8) #10
  call void @llvm.lifetime.end.p0(i64 8, ptr %7) #10
  br label %9, !llvm.loop !18

48:                                               ; preds = %9
  call void @llvm.lifetime.end.p0(i64 1, ptr %6) #10
  call void @llvm.lifetime.end.p0(i64 8, ptr %5) #10
  ret void
}