; Function Attrs: nounwind uwtable
define dso_local void @do_text_output_multiline(ptr noundef readonly captures(none) %0, ptr noundef %1) local_unnamed_addr #1 {
  %.sroa.016 = alloca i64, align 8
  %.sroa.0 = alloca i8, align 1
  call void @llvm.lifetime.start.p0(i64 8, ptr nonnull %.sroa.016)
  call void @llvm.lifetime.start.p0(i64 1, ptr nonnull %.sroa.0)
  store i8 0, ptr %.sroa.0, align 1
  %3 = load i8, ptr %1, align 1
  %.not17 = icmp eq i8 %3, 0
  br i1 %.not17, label %._crit_edge, label %.lr.ph

.lr.ph:                                           ; preds = %2
  %4 = getelementptr inbounds nuw i8, ptr %0, i64 8
  br label %5

5:                                                ; preds = %.lr.ph, %16
  %.01318 = phi ptr [ %1, %.lr.ph ], [ %.012, %16 ]
  %6 = tail call ptr @strchr(ptr noundef nonnull dereferenceable(1) %.01318, i32 noundef 10) #16
  %.not15 = icmp eq ptr %6, null
  br i1 %.not15, label %12, label %7

7:                                                ; preds = %5
  %8 = ptrtoint ptr %6 to i64
  %9 = ptrtoint ptr %.01318 to i64
  %10 = sub i64 %8, %9
  %11 = getelementptr inbounds nuw i8, ptr %6, i64 1
  br label %16

12:                                               ; preds = %5
  %13 = tail call i64 @strlen(ptr noundef nonnull dereferenceable(1) %.01318) #16
  %sext = shl i64 %13, 32
  %14 = ashr exact i64 %sext, 32
  %15 = getelementptr inbounds i8, ptr %.01318, i64 %14
  br label %16

16:                                               ; preds = %12, %7
  %.012 = phi ptr [ %11, %7 ], [ %15, %12 ]
  %.0.in = phi i64 [ %10, %7 ], [ %13, %12 ]
  %.0 = trunc i64 %.0.in to i32
  %17 = tail call ptr @cstring_to_text_with_len(ptr noundef nonnull %.01318, i32 noundef %.0) #14
  %18 = ptrtoint ptr %17 to i64
  store i64 %18, ptr %.sroa.016, align 8
  %19 = load ptr, ptr %0, align 8
  %20 = getelementptr inbounds nuw i8, ptr %19, i64 16
  %21 = load ptr, ptr %20, align 8
  %22 = load i32, ptr %21, align 8
  %23 = getelementptr inbounds nuw i8, ptr %19, i64 8
  %24 = load ptr, ptr %23, align 8
  %25 = getelementptr inbounds nuw i8, ptr %24, i64 24
  %26 = load ptr, ptr %25, align 8
  tail call void %26(ptr noundef %19) #14
  %27 = getelementptr inbounds nuw i8, ptr %19, i64 24
  %28 = load ptr, ptr %27, align 8
  %29 = sext i32 %22 to i64
  %30 = shl nsw i64 %29, 3
  call void @llvm.memcpy.p0.p0.i64(ptr align 8 %28, ptr nonnull readonly align 8 %.sroa.016, i64 %30, i1 false)
  %31 = getelementptr inbounds nuw i8, ptr %19, i64 32
  %32 = load ptr, ptr %31, align 8
  call void @llvm.memcpy.p0.p0.i64(ptr align 1 %32, ptr nonnull readonly align 1 %.sroa.0, i64 %29, i1 false)
  %33 = getelementptr inbounds nuw i8, ptr %19, i64 4
  %34 = load i16, ptr %33, align 4
  %35 = and i16 %34, -3
  store i16 %35, ptr %33, align 4
  %36 = load ptr, ptr %20, align 8
  %37 = load i32, ptr %36, align 8
  %38 = trunc i32 %37 to i16
  %39 = getelementptr inbounds nuw i8, ptr %19, i64 6
  store i16 %38, ptr %39, align 2
  %40 = load ptr, ptr %4, align 8
  %41 = load ptr, ptr %40, align 8
  %42 = tail call zeroext i1 %41(ptr noundef %19, ptr noundef nonnull %40) #14
  %43 = load ptr, ptr %23, align 8
  %44 = getelementptr inbounds nuw i8, ptr %43, i64 24
  %45 = load ptr, ptr %44, align 8
  tail call void %45(ptr noundef %19) #14
  tail call void @pfree(ptr noundef %17) #14
  %46 = load i8, ptr %.012, align 1
  %.not = icmp eq i8 %46, 0
  br i1 %.not, label %._crit_edge, label %5, !llvm.loop !16

._crit_edge:                                      ; preds = %16, %2
  call void @llvm.lifetime.end.p0(i64 1, ptr nonnull %.sroa.0)
  call void @llvm.lifetime.end.p0(i64 8, ptr nonnull %.sroa.016)
  ret void
}